target datalayout = "e-m:e-p270:32:32-p271:32:32-p272:64:64-i64:64-i128:128-f80:128-n8:16:32:64-S128"
target triple = "x86_64-pc-linux-gnu"

%"class.gmx::AwhDimParams" = type { i32, i32, double, double, double, double, double, double, double }
%"class.gmx::AwhBiasParams" = type <{ %"class.std::vector.12", i32, [4 x i8], double, double, i32, [4 x i8], double, i8, i8, [6 x i8], double, double, i32, i8, [3 x i8] }>
%"class.std::vector.12" = type { %"struct.std::_Vector_base.13" }
%"struct.std::_Vector_base.13" = type { %"struct.std::_Vector_base<gmx::AwhDimParams, std::allocator<gmx::AwhDimParams>>::_Vector_impl" }
%"struct.std::_Vector_base<gmx::AwhDimParams, std::allocator<gmx::AwhDimParams>>::_Vector_impl" = type { %"struct.std::_Vector_base<gmx::AwhDimParams, std::allocator<gmx::AwhDimParams>>::_Vector_impl_data" }
%"struct.std::_Vector_base<gmx::AwhDimParams, std::allocator<gmx::AwhDimParams>>::_Vector_impl_data" = type { ptr, ptr, ptr }
%class.anon.29 = type { i8 }

@.str.38 = private unnamed_addr constant [140 x i8] c"generated/home/dtcxzyw/WorkSpace/Projects/compilers/llvm-opt-benchmark/bench/gromacs/gromacs/src/gromacs/applied_forces/awh/read_params.cpp\00", align 1
@.str.39 = private unnamed_addr constant [23 x i8] c"!serializer->reading()\00", align 1
@.str.71 = private unnamed_addr constant [54 x i8] c"Can not use reading serializer to write datastructure\00", align 1
@"__PRETTY_FUNCTION__._ZZN3gmx13AwhBiasParams9serializeEPNS_11ISerializerEENK3$_0clEv" = private unnamed_addr constant [89 x i8] c"auto gmx::AwhBiasParams::serialize(ISerializer *)::(anonymous class)::operator()() const\00", align 1

; Function Attrs: mustprogress nounwind uwtable
define linkonce_odr noundef i64 @_ZNKSt6vectorIN3gmx12AwhDimParamsESaIS1_EE4sizeEv(ptr noundef nonnull align 8 dereferenceable(24) %0) #3 comdat align 2 {
  %2 = alloca ptr, align 8
  store ptr %0, ptr %2, align 8
  %3 = load ptr, ptr %2, align 8
  %4 = getelementptr inbounds %"struct.std::_Vector_base.13", ptr %3, i32 0, i32 0
  %5 = getelementptr inbounds %"struct.std::_Vector_base<gmx::AwhDimParams, std::allocator<gmx::AwhDimParams>>::_Vector_impl_data", ptr %4, i32 0, i32 1
  %6 = load ptr, ptr %5, align 8
  %7 = getelementptr inbounds %"struct.std::_Vector_base.13", ptr %3, i32 0, i32 0
  %8 = getelementptr inbounds %"struct.std::_Vector_base<gmx::AwhDimParams, std::allocator<gmx::AwhDimParams>>::_Vector_impl_data", ptr %7, i32 0, i32 0
  %9 = load ptr, ptr %8, align 8
  %10 = ptrtoint ptr %6 to i64
  %11 = ptrtoint ptr %9 to i64
  %12 = sub i64 %10, %11
  %13 = sdiv exact i64 %12, 64
  ret i64 %13
}

; Function Attrs: mustprogress nounwind uwtable
define linkonce_odr noundef nonnull align 8 dereferenceable(64) ptr @_ZNSt6vectorIN3gmx12AwhDimParamsESaIS1_EEixEm(ptr noundef nonnull align 8 dereferenceable(24) %0, i64 noundef %1) #3 comdat align 2 {
  %3 = alloca ptr, align 8
  %4 = alloca i64, align 8
  store ptr %0, ptr %3, align 8
  store i64 %1, ptr %4, align 8
  %5 = load ptr, ptr %3, align 8
  %6 = getelementptr inbounds %"struct.std::_Vector_base.13", ptr %5, i32 0, i32 0
  %7 = getelementptr inbounds %"struct.std::_Vector_base<gmx::AwhDimParams, std::allocator<gmx::AwhDimParams>>::_Vector_impl_data", ptr %6, i32 0, i32 0
  %8 = load ptr, ptr %7, align 8
  %9 = load i64, ptr %4, align 8
  %10 = getelementptr inbounds %"class.gmx::AwhDimParams", ptr %8, i64 %9
  ret ptr %10
}

; Function Attrs: mustprogress nounwind uwtable
define linkonce_odr noundef i32 @_ZNK3gmx13AwhBiasParams4ndimEv(ptr noundef nonnull align 8 dereferenceable(93) %0) #3 comdat align 2 {
  %2 = alloca ptr, align 8
  store ptr %0, ptr %2, align 8
  %3 = load ptr, ptr %2, align 8
  %4 = getelementptr inbounds %"class.gmx::AwhBiasParams", ptr %3, i32 0, i32 0
  %5 = call noundef i64 @_ZNKSt6vectorIN3gmx12AwhDimParamsESaIS1_EE4sizeEv(ptr noundef nonnull align 8 dereferenceable(24) %4) #4
  %6 = trunc i64 %5 to i32
  ret i32 %6
}

; Function Attrs: mustprogress uwtable
define linkonce_odr void @_ZN3gmx11ISerializer11doEnumAsIntINS_22AwhHistogramGrowthTypeEEEvPT_(ptr noundef nonnull align 8 dereferenceable(8) %0, ptr noundef %1) #2 comdat align 2 {
  %3 = alloca ptr, align 8
  %4 = alloca ptr, align 8
  %5 = alloca i32, align 4
  store ptr %0, ptr %3, align 8
  store ptr %1, ptr %4, align 8
  %6 = load ptr, ptr %3, align 8
  %7 = load ptr, ptr %4, align 8
  %8 = load i32, ptr %7, align 4
  store i32 %8, ptr %5, align 4
  %9 = load ptr, ptr %6, align 8
  %10 = getelementptr inbounds ptr, ptr %9, i64 7
  %11 = load ptr, ptr %10, align 8
  call void %11(ptr noundef nonnull align 8 dereferenceable(8) %6, ptr noundef %5)
  %12 = load i32, ptr %5, align 4
  %13 = load ptr, ptr %4, align 8
  store i32 %12, ptr %13, align 4
  ret void
}

; Function Attrs: mustprogress uwtable
define linkonce_odr void @_ZN3gmx11ISerializer11doEnumAsIntINS_13AwhTargetTypeEEEvPT_(ptr noundef nonnull align 8 dereferenceable(8) %0, ptr noundef %1) #2 comdat align 2 {
  %3 = alloca ptr, align 8
  %4 = alloca ptr, align 8
  %5 = alloca i32, align 4
  store ptr %0, ptr %3, align 8
  store ptr %1, ptr %4, align 8
  %6 = load ptr, ptr %3, align 8
  %7 = load ptr, ptr %4, align 8
  %8 = load i32, ptr %7, align 4
  store i32 %8, ptr %5, align 4
  %9 = load ptr, ptr %6, align 8
  %10 = getelementptr inbounds ptr, ptr %9, i64 7
  %11 = load ptr, ptr %10, align 8
  call void %11(ptr noundef nonnull align 8 dereferenceable(8) %6, ptr noundef %5)
  %12 = load i32, ptr %5, align 4
  %13 = load ptr, ptr %4, align 8
  store i32 %12, ptr %13, align 4
  ret void
}

; Function Attrs: mustprogress uwtable
define internal void @"_ZZN3gmx13AwhBiasParams9serializeEPNS_11ISerializerEENK3$_0clEv"(ptr noundef nonnull align 1 dereferenceable(1) %0) #2 align 2 {
  %2 = alloca ptr, align 8
  store ptr %0, ptr %2, align 8
  call void @_ZN3gmx8internal13assertHandlerEPKcS2_S2_S2_i(ptr noundef @.str.39, ptr noundef @.str.71, ptr noundef @"__PRETTY_FUNCTION__._ZZN3gmx13AwhBiasParams9serializeEPNS_11ISerializerEENK3$_0clEv", ptr noundef @.str.38, i32 noundef 934) #12
  unreachable
}

; Function Attrs: mustprogress uwtable
define void @_ZN3gmx13AwhBiasParams9serializeEPNS_11ISerializerE(ptr noundef nonnull align 8 dereferenceable(93) %0, ptr noundef %1) #2 align 2 {
  %3 = alloca ptr, align 8
  %4 = alloca ptr, align 8
  %5 = alloca %class.anon.29, align 1
  %6 = alloca i32, align 4
  %7 = alloca i32, align 4
  %8 = alloca i32, align 4
  store ptr %0, ptr %3, align 8
  store ptr %1, ptr %4, align 8
  %9 = load ptr, ptr %3, align 8
  %10 = load ptr, ptr %4, align 8
  %11 = load ptr, ptr %10, align 8
  %12 = getelementptr inbounds ptr, ptr %11, i64 2
  %13 = load ptr, ptr %12, align 8
  %14 = call noundef zeroext i1 %13(ptr noundef nonnull align 8 dereferenceable(8) %10)
  br i1 %14, label %16, label %15

15:                                               ; preds = %2
  br label %17

16:                                               ; preds = %2
  call void @"_ZZN3gmx13AwhBiasParams9serializeEPNS_11ISerializerEENK3$_0clEv"(ptr noundef nonnull align 1 dereferenceable(1) %5)
  br label %17

17:                                               ; preds = %16, %15
  %18 = load ptr, ptr %4, align 8
  %19 = getelementptr inbounds %"class.gmx::AwhBiasParams", ptr %9, i32 0, i32 1
  call void @_ZN3gmx11ISerializer11doEnumAsIntINS_13AwhTargetTypeEEEvPT_(ptr noundef nonnull align 8 dereferenceable(8) %18, ptr noundef %19)
  %20 = load ptr, ptr %4, align 8
  %21 = getelementptr inbounds %"class.gmx::AwhBiasParams", ptr %9, i32 0, i32 3
  %22 = load ptr, ptr %20, align 8
  %23 = getelementptr inbounds ptr, ptr %22, i64 11
  %24 = load ptr, ptr %23, align 8
  call void %24(ptr noundef nonnull align 8 dereferenceable(8) %20, ptr noundef %21)
  %25 = load ptr, ptr %4, align 8
  %26 = getelementptr inbounds %"class.gmx::AwhBiasParams", ptr %9, i32 0, i32 4
  %27 = load ptr, ptr %25, align 8
  %28 = getelementptr inbounds ptr, ptr %27, i64 11
  %29 = load ptr, ptr %28, align 8
  call void %29(ptr noundef nonnull align 8 dereferenceable(8) %25, ptr noundef %26)
  %30 = load ptr, ptr %4, align 8
  %31 = getelementptr inbounds %"class.gmx::AwhBiasParams", ptr %9, i32 0, i32 5
  call void @_ZN3gmx11ISerializer11doEnumAsIntINS_22AwhHistogramGrowthTypeEEEvPT_(ptr noundef nonnull align 8 dereferenceable(8) %30, ptr noundef %31)
  %32 = load ptr, ptr %4, align 8
  %33 = getelementptr inbounds %"class.gmx::AwhBiasParams", ptr %9, i32 0, i32 7
  %34 = load ptr, ptr %32, align 8
  %35 = getelementptr inbounds ptr, ptr %34, i64 11
  %36 = load ptr, ptr %35, align 8
  call void %36(ptr noundef nonnull align 8 dereferenceable(8) %32, ptr noundef %33)
  %37 = getelementptr inbounds %"class.gmx::AwhBiasParams", ptr %9, i32 0, i32 8
  %38 = load i8, ptr %37, align 8
  %39 = trunc i8 %38 to i1
  %40 = zext i1 %39 to i32
  store i32 %40, ptr %6, align 4
  %41 = load ptr, ptr %4, align 8
  %42 = load ptr, ptr %41, align 8
  %43 = getelementptr inbounds ptr, ptr %42, i64 7
  %44 = load ptr, ptr %43, align 8
  call void %44(ptr noundef nonnull align 8 dereferenceable(8) %41, ptr noundef %6)
  %45 = load ptr, ptr %4, align 8
  %46 = getelementptr inbounds %"class.gmx::AwhBiasParams", ptr %9, i32 0, i32 9
  %47 = load ptr, ptr %45, align 8
  %48 = getelementptr inbounds ptr, ptr %47, i64 3
  %49 = load ptr, ptr %48, align 8
  call void %49(ptr noundef nonnull align 8 dereferenceable(8) %45, ptr noundef %46)
  %50 = load ptr, ptr %4, align 8
  %51 = getelementptr inbounds %"class.gmx::AwhBiasParams", ptr %9, i32 0, i32 11
  %52 = load ptr, ptr %50, align 8
  %53 = getelementptr inbounds ptr, ptr %52, i64 11
  %54 = load ptr, ptr %53, align 8
  call void %54(ptr noundef nonnull align 8 dereferenceable(8) %50, ptr noundef %51)
  %55 = load ptr, ptr %4, align 8
  %56 = getelementptr inbounds %"class.gmx::AwhBiasParams", ptr %9, i32 0, i32 12
  %57 = load ptr, ptr %55, align 8
  %58 = getelementptr inbounds ptr, ptr %57, i64 11
  %59 = load ptr, ptr %58, align 8
  call void %59(ptr noundef nonnull align 8 dereferenceable(8) %55, ptr noundef %56)
  %60 = call noundef i32 @_ZNK3gmx13AwhBiasParams4ndimEv(ptr noundef nonnull align 8 dereferenceable(93) %9)
  store i32 %60, ptr %7, align 4
  %61 = load ptr, ptr %4, align 8
  %62 = load ptr, ptr %61, align 8
  %63 = getelementptr inbounds ptr, ptr %62, i64 7
  %64 = load ptr, ptr %63, align 8
  call void %64(ptr noundef nonnull align 8 dereferenceable(8) %61, ptr noundef %7)
  %65 = load ptr, ptr %4, align 8
  %66 = getelementptr inbounds %"class.gmx::AwhBiasParams", ptr %9, i32 0, i32 13
  %67 = load ptr, ptr %65, align 8
  %68 = getelementptr inbounds ptr, ptr %67, i64 7
  %69 = load ptr, ptr %68, align 8
  call void %69(ptr noundef nonnull align 8 dereferenceable(8) %65, ptr noundef %66)
  %70 = load ptr, ptr %4, align 8
  %71 = getelementptr inbounds %"class.gmx::AwhBiasParams", ptr %9, i32 0, i32 14
  %72 = load ptr, ptr %70, align 8
  %73 = getelementptr inbounds ptr, ptr %72, i64 3
  %74 = load ptr, ptr %73, align 8
  call void %74(ptr noundef nonnull align 8 dereferenceable(8) %70, ptr noundef %71)
  store i32 0, ptr %8, align 4
  br label %75

75:                                               ; preds = %85, %17
  %76 = load i32, ptr %8, align 4
  %77 = load i32, ptr %7, align 4
  %78 = icmp slt i32 %76, %77
  br i1 %78, label %79, label %88

79:                                               ; preds = %75
  %80 = getelementptr inbounds %"class.gmx::AwhBiasParams", ptr %9, i32 0, i32 0
  %81 = load i32, ptr %8, align 4
  %82 = sext i32 %81 to i64
  %83 = call noundef nonnull align 8 dereferenceable(64) ptr @_ZNSt6vectorIN3gmx12AwhDimParamsESaIS1_EEixEm(ptr noundef nonnull align 8 dereferenceable(24) %80, i64 noundef %82) #4
  %84 = load ptr, ptr %4, align 8
  call void @_ZN3gmx12AwhDimParams9serializeEPNS_11ISerializerE(ptr noundef nonnull align 8 dereferenceable(64) %83, ptr noundef %84)
  br label %85

85:                                               ; preds = %79
  %86 = load i32, ptr %8, align 4
  %87 = add nsw i32 %86, 1
  store i32 %87, ptr %8, align 4
  br label %75, !llvm.loop !9

88:                                               ; preds = %75
  ret void
}