; Function Attrs: mustprogress uwtable
define void @_ZN3gmx13AwhBiasParams9serializeEPNS_11ISerializerE(ptr noundef nonnull align 8 dereferenceable(93) %0, ptr noundef %1) local_unnamed_addr #4 align 2 {
  %3 = alloca i32, align 4
  %4 = alloca i32, align 4
  %5 = alloca i32, align 4
  %6 = alloca i32, align 4
  %7 = load ptr, ptr %1, align 8
  %8 = getelementptr inbounds i8, ptr %7, i64 16
  %9 = load ptr, ptr %8, align 8
  %10 = tail call noundef zeroext i1 %9(ptr noundef nonnull align 8 dereferenceable(8) %1)
  br i1 %10, label %11, label %12

11:                                               ; preds = %2
  tail call void @_ZN3gmx8internal13assertHandlerEPKcS2_S2_S2_i(ptr noundef nonnull @.str.39, ptr noundef nonnull @.str.71, ptr noundef nonnull @"__PRETTY_FUNCTION__._ZZN3gmx13AwhBiasParams9serializeEPNS_11ISerializerEENK3$_0clEv", ptr noundef nonnull @.str.38, i32 noundef 934) #23
  unreachable

12:                                               ; preds = %2
  %13 = getelementptr inbounds i8, ptr %0, i64 24
  call void @llvm.lifetime.start.p0(i64 4, ptr nonnull %4)
  %14 = load i32, ptr %13, align 8
  store i32 %14, ptr %4, align 4
  %15 = load ptr, ptr %1, align 8
  %16 = getelementptr inbounds i8, ptr %15, i64 56
  %17 = load ptr, ptr %16, align 8
  call void %17(ptr noundef nonnull align 8 dereferenceable(8) %1, ptr noundef nonnull %4)
  %18 = load i32, ptr %4, align 4
  store i32 %18, ptr %13, align 8
  call void @llvm.lifetime.end.p0(i64 4, ptr nonnull %4)
  %19 = getelementptr inbounds i8, ptr %0, i64 32
  %20 = load ptr, ptr %1, align 8
  %21 = getelementptr inbounds i8, ptr %20, i64 88
  %22 = load ptr, ptr %21, align 8
  call void %22(ptr noundef nonnull align 8 dereferenceable(8) %1, ptr noundef nonnull %19)
  %23 = getelementptr inbounds i8, ptr %0, i64 40
  %24 = load ptr, ptr %1, align 8
  %25 = getelementptr inbounds i8, ptr %24, i64 88
  %26 = load ptr, ptr %25, align 8
  call void %26(ptr noundef nonnull align 8 dereferenceable(8) %1, ptr noundef nonnull %23)
  %27 = getelementptr inbounds i8, ptr %0, i64 48
  call void @llvm.lifetime.start.p0(i64 4, ptr nonnull %3)
  %28 = load i32, ptr %27, align 8
  store i32 %28, ptr %3, align 4
  %29 = load ptr, ptr %1, align 8
  %30 = getelementptr inbounds i8, ptr %29, i64 56
  %31 = load ptr, ptr %30, align 8
  call void %31(ptr noundef nonnull align 8 dereferenceable(8) %1, ptr noundef nonnull %3)
  %32 = load i32, ptr %3, align 4
  store i32 %32, ptr %27, align 8
  call void @llvm.lifetime.end.p0(i64 4, ptr nonnull %3)
  %33 = getelementptr inbounds i8, ptr %0, i64 56
  %34 = load ptr, ptr %1, align 8
  %35 = getelementptr inbounds i8, ptr %34, i64 88
  %36 = load ptr, ptr %35, align 8
  call void %36(ptr noundef nonnull align 8 dereferenceable(8) %1, ptr noundef nonnull %33)
  %37 = getelementptr inbounds i8, ptr %0, i64 64
  %38 = load i8, ptr %37, align 8
  %39 = and i8 %38, 1
  %40 = zext nneg i8 %39 to i32
  store i32 %40, ptr %5, align 4
  %41 = load ptr, ptr %1, align 8
  %42 = getelementptr inbounds i8, ptr %41, i64 56
  %43 = load ptr, ptr %42, align 8
  call void %43(ptr noundef nonnull align 8 dereferenceable(8) %1, ptr noundef nonnull %5)
  %44 = getelementptr inbounds i8, ptr %0, i64 65
  %45 = load ptr, ptr %1, align 8
  %46 = getelementptr inbounds i8, ptr %45, i64 24
  %47 = load ptr, ptr %46, align 8
  call void %47(ptr noundef nonnull align 8 dereferenceable(8) %1, ptr noundef nonnull %44)
  %48 = getelementptr inbounds i8, ptr %0, i64 72
  %49 = load ptr, ptr %1, align 8
  %50 = getelementptr inbounds i8, ptr %49, i64 88
  %51 = load ptr, ptr %50, align 8
  call void %51(ptr noundef nonnull align 8 dereferenceable(8) %1, ptr noundef nonnull %48)
  %52 = getelementptr inbounds i8, ptr %0, i64 80
  %53 = load ptr, ptr %1, align 8
  %54 = getelementptr inbounds i8, ptr %53, i64 88
  %55 = load ptr, ptr %54, align 8
  call void %55(ptr noundef nonnull align 8 dereferenceable(8) %1, ptr noundef nonnull %52)
  %56 = getelementptr inbounds i8, ptr %0, i64 8
  %57 = load ptr, ptr %56, align 8
  %58 = load ptr, ptr %0, align 8
  %59 = ptrtoint ptr %57 to i64
  %60 = ptrtoint ptr %58 to i64
  %61 = sub i64 %59, %60
  %62 = lshr exact i64 %61, 6
  %63 = trunc i64 %62 to i32
  store i32 %63, ptr %6, align 4
  %64 = load ptr, ptr %1, align 8
  %65 = getelementptr inbounds i8, ptr %64, i64 56
  %66 = load ptr, ptr %65, align 8
  call void %66(ptr noundef nonnull align 8 dereferenceable(8) %1, ptr noundef nonnull %6)
  %67 = getelementptr inbounds i8, ptr %0, i64 88
  %68 = load ptr, ptr %1, align 8
  %69 = getelementptr inbounds i8, ptr %68, i64 56
  %70 = load ptr, ptr %69, align 8
  call void %70(ptr noundef nonnull align 8 dereferenceable(8) %1, ptr noundef nonnull %67)
  %71 = getelementptr inbounds i8, ptr %0, i64 92
  %72 = load ptr, ptr %1, align 8
  %73 = getelementptr inbounds i8, ptr %72, i64 24
  %74 = load ptr, ptr %73, align 8
  call void %74(ptr noundef nonnull align 8 dereferenceable(8) %1, ptr noundef nonnull %71)
  %75 = load i32, ptr %6, align 4
  %76 = icmp sgt i32 %75, 0
  br i1 %76, label %.lr.ph, label %._crit_edge

.lr.ph:                                           ; preds = %12, %.lr.ph
  %indvars.iv = phi i64 [ %indvars.iv.next, %.lr.ph ], [ 0, %12 ]
  %77 = load ptr, ptr %0, align 8
  %78 = getelementptr inbounds %"class.gmx::AwhDimParams", ptr %77, i64 %indvars.iv
  call void @_ZN3gmx12AwhDimParams9serializeEPNS_11ISerializerE(ptr noundef nonnull align 8 dereferenceable(64) %78, ptr noundef nonnull %1)
  %indvars.iv.next = add nuw nsw i64 %indvars.iv, 1
  %79 = load i32, ptr %6, align 4
  %80 = sext i32 %79 to i64
  %81 = icmp slt i64 %indvars.iv.next, %80
  br i1 %81, label %.lr.ph, label %._crit_edge, !llvm.loop !25

._crit_edge:                                      ; preds = %.lr.ph, %12
  ret void
}